---
triple:          'arm64-apple-darwin'
binary-path:     '/Users/abdullahalnafi/Desktop/Study/practise/Codeforces/1585_B/.bin/B_Array_Eversion'
relocations:
  - { offset: 0x19D66, size: 0x8, addend: 0x0, symName: __ZStL8__ioinit, symObjAddr: 0x7EA56, symBinAddr: 0x10000C228, symSize: 0x0 }
  - { offset: 0x1A20A, size: 0x8, addend: 0x0, symName: __GLOBAL__sub_I_B_Array_Eversion.cpp, symObjAddr: 0x330C, symBinAddr: 0x100002C8C, symSize: 0x14 }
  - { offset: 0x1A222, size: 0x8, addend: 0x0, symName: __Z41__static_initialization_and_destruction_0v, symObjAddr: 0x32D0, symBinAddr: 0x100002C50, symSize: 0x3C }
  - { offset: 0x1A25E, size: 0x8, addend: 0x0, symName: __ZSt9__fill_a1IPiiEvT_S1_RKT0_, symObjAddr: 0x2408, symBinAddr: 0x100002BF0, symSize: 0x60 }
  - { offset: 0x1A333, size: 0x8, addend: 0x0, symName: __ZN11__gnu_debug16_Error_formatter10_ParameterC1IiEERKPT_PKcNS0_12_Is_iteratorE, symObjAddr: 0x235C, symBinAddr: 0x100002B44, symSize: 0xAC }
  - { offset: 0x1A3E5, size: 0x8, addend: 0x0, symName: __ZN11__gnu_debug16_Error_formatter11_M_iteratorIPiEERS0_RKT_PKc, symObjAddr: 0x22C0, symBinAddr: 0x100002AA8, symSize: 0x9C }
  - { offset: 0x1A439, size: 0x8, addend: 0x0, symName: __ZN11__gnu_debug13__can_advanceIPimEEbT_T0_, symObjAddr: 0x22A8, symBinAddr: 0x100002A90, symSize: 0x18 }
  - { offset: 0x1A546, size: 0x8, addend: 0x0, symName: __ZSt10_ConstructIiJEEvPT_DpOT0_, symObjAddr: 0x225C, symBinAddr: 0x100002A44, symSize: 0x4C }
  - { offset: 0x1A5A8, size: 0x8, addend: 0x0, symName: __ZNSt15__new_allocatorIiE8allocateEmPKv, symObjAddr: 0x21E0, symBinAddr: 0x1000029C8, symSize: 0x7C }
  - { offset: 0x1A630, size: 0x8, addend: 0x0, symName: __ZNSt27__uninitialized_default_n_1ILb1EE18__uninit_default_nIPimEET_S3_T0_, symObjAddr: 0x2068, symBinAddr: 0x100002850, symSize: 0x178 }
  - { offset: 0x1A7F9, size: 0x8, addend: 0x0, symName: __ZNSt15__new_allocatorIiE10deallocateEPim, symObjAddr: 0x2038, symBinAddr: 0x100002820, symSize: 0x30 }
  - { offset: 0x1A83F, size: 0x8, addend: 0x0, symName: __ZSt25__uninitialized_default_nIPimET_S1_T0_, symObjAddr: 0x200C, symBinAddr: 0x1000027F4, symSize: 0x2C }
  - { offset: 0x1A8A1, size: 0x8, addend: 0x0, symName: __ZNSt9__cxx199812_Vector_baseIiSaIiEE11_M_allocateEm, symObjAddr: 0x1FBC, symBinAddr: 0x1000027A4, symSize: 0x50 }
  - { offset: 0x1A923, size: 0x8, addend: 0x0, symName: __ZNSt9__cxx199812_Vector_baseIiSaIiEE17_Vector_impl_dataC2Ev, symObjAddr: 0x1F90, symBinAddr: 0x100002778, symSize: 0x2C }
  - { offset: 0x1A9BE, size: 0x8, addend: 0x0, symName: __ZN11__gnu_debug16_Error_formatter10_ParameterC1INSt9__cxx19986vectorIiSaIiEEEEERKT_PKcNS0_12_Is_sequenceE, symObjAddr: 0x1F20, symBinAddr: 0x100002708, symSize: 0x70 }
  - { offset: 0x1AA64, size: 0x8, addend: 0x0, symName: __ZN11__gnu_debug18_BeforeBeginHelperINSt7__debug6vectorIiSaIiEEEE5_S_IsIN9__gnu_cxx17__normal_iteratorIPiNSt9__cxx19986vectorIiS3_EEEESt20forward_iterator_tagEEbRKNS_14_Safe_iteratorIT_S4_T0_EE, symObjAddr: 0x1F0C, symBinAddr: 0x1000026F4, symSize: 0x14 }
  - { offset: 0x1AA9C, size: 0x8, addend: 0x0, symName: __ZNSt7__debug6vectorIiSaIiEE7_M_baseEv, symObjAddr: 0x1EF4, symBinAddr: 0x1000026DC, symSize: 0x18 }
  - { offset: 0x1AAC6, size: 0x8, addend: 0x0, symName: __ZNK11__gnu_debug14_Safe_iteratorIN9__gnu_cxx17__normal_iteratorIPiNSt9__cxx19986vectorIiSaIiEEEEENSt7__debug6vectorIiS6_EESt20forward_iterator_tagE16_M_incrementableEv, symObjAddr: 0x1E98, symBinAddr: 0x100002680, symSize: 0x5C }
  - { offset: 0x1AB06, size: 0x8, addend: 0x0, symName: __ZN11__gnu_debug14_Safe_iteratorIN9__gnu_cxx17__normal_iteratorIPiNSt9__cxx19986vectorIiSaIiEEEEENSt7__debug6vectorIiS6_EESt20forward_iterator_tagE4baseEv, symObjAddr: 0x1E84, symBinAddr: 0x10000266C, symSize: 0x14 }
  - { offset: 0x1AB30, size: 0x8, addend: 0x0, symName: __ZNK11__gnu_debug14_Safe_iteratorIN9__gnu_cxx17__normal_iteratorIPiNSt9__cxx19986vectorIiSaIiEEEEENSt7__debug6vectorIiS6_EESt20forward_iterator_tagE11_M_is_beginEv, symObjAddr: 0x1E18, symBinAddr: 0x100002600, symSize: 0x6C }
  - { offset: 0x1ABCC, size: 0x8, addend: 0x0, symName: __ZNK11__gnu_debug14_Safe_iteratorIN9__gnu_cxx17__normal_iteratorIPiNSt9__cxx19986vectorIiSaIiEEEEENSt7__debug6vectorIiS6_EESt20forward_iterator_tagE15_M_get_sequenceEv, symObjAddr: 0x1E00, symBinAddr: 0x1000025E8, symSize: 0x18 }
  - { offset: 0x1AC48, size: 0x8, addend: 0x0, symName: __ZN11__gnu_debug14_Safe_iteratorIN9__gnu_cxx17__normal_iteratorIPiNSt9__cxx19986vectorIiSaIiEEEEENSt7__debug6vectorIiS6_EESt20forward_iterator_tagEC2ES8_PKNS_19_Safe_sequence_baseE, symObjAddr: 0x1DB0, symBinAddr: 0x100002598, symSize: 0x50 }
  - { offset: 0x1ACAE, size: 0x8, addend: 0x0, symName: __ZSt27__uninitialized_default_n_aIPimiET_S1_T0_RSaIT1_E, symObjAddr: 0x1D88, symBinAddr: 0x100002570, symSize: 0x28 }
  - { offset: 0x1AD11, size: 0x8, addend: 0x0, symName: __ZNSt9__cxx199812_Vector_baseIiSaIiEE17_M_create_storageEm, symObjAddr: 0x1D28, symBinAddr: 0x100002510, symSize: 0x60 }
  - { offset: 0x1AD73, size: 0x8, addend: 0x0, symName: __ZNSt9__cxx199812_Vector_baseIiSaIiEE12_Vector_implC1ERKS1_, symObjAddr: 0x1CDC, symBinAddr: 0x1000024C4, symSize: 0x4C }
  - { offset: 0x1AE19, size: 0x8, addend: 0x0, symName: __ZNSt9__cxx19986vectorIiSaIiEE11_S_max_sizeERKS1_, symObjAddr: 0x1C88, symBinAddr: 0x100002470, symSize: 0x54 }
  - { offset: 0x1AED4, size: 0x8, addend: 0x0, symName: __ZN11__gnu_debug16_Error_formatter11_M_sequenceINSt9__cxx19986vectorIiSaIiEEEEERS0_RKT_PKc, symObjAddr: 0x1BEC, symBinAddr: 0x1000023D4, symSize: 0x9C }
  - { offset: 0x1AF70, size: 0x8, addend: 0x0, symName: __ZN11__gnu_debug16_Error_formatter10_ParameterC1INSt7__debug6vectorIiSaIiEEEEERKT_PKcNS0_12_Is_sequenceE, symObjAddr: 0x1B7C, symBinAddr: 0x100002364, symSize: 0x70 }
  - { offset: 0x1B034, size: 0x8, addend: 0x0, symName: __ZN11__gnu_debug16_Error_formatter10_ParameterC1IN9__gnu_cxx17__normal_iteratorIPiNSt9__cxx19986vectorIiSaIiEEEEENSt7__debug6vectorIiS8_EESt20forward_iterator_tagEERKNS_14_Safe_iteratorIT_T0_T1_EEPKcNS0_12_Is_iteratorE, symObjAddr: 0x1A14, symBinAddr: 0x1000021FC, symSize: 0x168 }
  - { offset: 0x1B0B4, size: 0x8, addend: 0x0, symName: __ZNK11__gnu_debug14_Safe_iteratorIN9__gnu_cxx17__normal_iteratorIPiNSt9__cxx19986vectorIiSaIiEEEEENSt7__debug6vectorIiS6_EESt20forward_iterator_tagE18_M_is_before_beginEv, symObjAddr: 0x19F8, symBinAddr: 0x1000021E0, symSize: 0x1C }
  - { offset: 0x1B0DE, size: 0x8, addend: 0x0, symName: __ZNK11__gnu_debug14_Safe_iteratorIN9__gnu_cxx17__normal_iteratorIPiNSt9__cxx19986vectorIiSaIiEEEEENSt7__debug6vectorIiS6_EESt20forward_iterator_tagE9_M_is_endEv, symObjAddr: 0x198C, symBinAddr: 0x100002174, symSize: 0x6C }
  - { offset: 0x1B17A, size: 0x8, addend: 0x0, symName: __ZN11__gnu_debug14_Safe_iteratorIN9__gnu_cxx17__normal_iteratorIPiNSt9__cxx19986vectorIiSaIiEEEEENSt7__debug6vectorIiS6_EESt20forward_iterator_tagEppEv, symObjAddr: 0x1894, symBinAddr: 0x10000207C, symSize: 0xF8 }
  - { offset: 0x1B2B3, size: 0x8, addend: 0x0, symName: __ZN11__gnu_debug16_Error_formatter10_ParameterC1IN9__gnu_cxx17__normal_iteratorIPiNSt9__cxx19986vectorIiSaIiEEEEENSt7__debug6vectorIiS8_EESt26random_access_iterator_tagEERKNS_14_Safe_iteratorIT_T0_T1_EEPKcNS0_12_Is_iteratorE, symObjAddr: 0x172C, symBinAddr: 0x100001F14, symSize: 0x168 }
  - { offset: 0x1B32F, size: 0x8, addend: 0x0, symName: __ZN11__gnu_debug14_Safe_iteratorIN9__gnu_cxx17__normal_iteratorIPiNSt9__cxx19986vectorIiSaIiEEEEENSt7__debug6vectorIiS6_EESt20forward_iterator_tagE11_S_constantEv, symObjAddr: 0x1724, symBinAddr: 0x100001F0C, symSize: 0x8 }
  - { offset: 0x1B3CD, size: 0x8, addend: 0x0, symName: __ZN11__gnu_debug14_Safe_iteratorIN9__gnu_cxx17__normal_iteratorIPiNSt9__cxx19986vectorIiSaIiEEEEENSt7__debug6vectorIiS6_EESt26bidirectional_iterator_tagEC2ES8_PKNS_19_Safe_sequence_baseE, symObjAddr: 0x16F4, symBinAddr: 0x100001EDC, symSize: 0x30 }
  - { offset: 0x1B425, size: 0x8, addend: 0x0, symName: __ZSt8_DestroyIPiEvT_S1_, symObjAddr: 0x16DC, symBinAddr: 0x100001EC4, symSize: 0x18 }
  - { offset: 0x1B46B, size: 0x8, addend: 0x0, symName: __ZNSt9__cxx199812_Vector_baseIiSaIiEE13_M_deallocateEPim, symObjAddr: 0x1684, symBinAddr: 0x100001E6C, symSize: 0x58 }
  - { offset: 0x1B4ED, size: 0x8, addend: 0x0, symName: __ZNSt9__cxx19986vectorIiSaIiEE21_M_default_initializeEm, symObjAddr: 0x1634, symBinAddr: 0x100001E1C, symSize: 0x50 }
  - { offset: 0x1B55E, size: 0x8, addend: 0x0, symName: __ZNSt9__cxx199812_Vector_baseIiSaIiEEC2EmRKS1_, symObjAddr: 0x15E0, symBinAddr: 0x100001DC8, symSize: 0x54 }
  - { offset: 0x1B592, size: 0x8, addend: 0x0, symName: __ZNSt9__cxx19986vectorIiSaIiEE17_S_check_init_lenEmRKS1_, symObjAddr: 0x155C, symBinAddr: 0x100001D44, symSize: 0x84 }
  - { offset: 0x1B648, size: 0x8, addend: 0x0, symName: __ZNSt9__cxx19986vectorIiSaIiEEixEm, symObjAddr: 0x147C, symBinAddr: 0x100001C64, symSize: 0xE0 }
  - { offset: 0x1B69E, size: 0x8, addend: 0x0, symName: __ZN11__gnu_debug16_Error_formatter11_M_sequenceINSt7__debug6vectorIiSaIiEEEEERS0_RKT_PKc, symObjAddr: 0x13E0, symBinAddr: 0x100001BC8, symSize: 0x9C }
  - { offset: 0x1B6F6, size: 0x8, addend: 0x0, symName: __ZNKSt9__cxx19986vectorIiSaIiEE4sizeEv, symObjAddr: 0x13A0, symBinAddr: 0x100001B88, symSize: 0x40 }
  - { offset: 0x1B747, size: 0x8, addend: 0x0, symName: __ZN11__gnu_debug16_Error_formatter11_M_iteratorINS_14_Safe_iteratorIN9__gnu_cxx17__normal_iteratorIPiNSt9__cxx19986vectorIiSaIiEEEEENSt7__debug6vectorIiS8_EESt20forward_iterator_tagEEEERS0_RKT_PKc, symObjAddr: 0x1304, symBinAddr: 0x100001AEC, symSize: 0x9C }
  - { offset: 0x1B79F, size: 0x8, addend: 0x0, symName: __ZNK11__gnu_debug14_Safe_iteratorIN9__gnu_cxx17__normal_iteratorIPiNSt9__cxx19986vectorIiSaIiEEEEENSt7__debug6vectorIiS6_EESt20forward_iterator_tagE18_M_dereferenceableEv, symObjAddr: 0x128C, symBinAddr: 0x100001A74, symSize: 0x78 }
  - { offset: 0x1B7C9, size: 0x8, addend: 0x0, symName: __ZN11__gnu_debug14_Safe_iteratorIN9__gnu_cxx17__normal_iteratorIPiNSt9__cxx19986vectorIiSaIiEEEEENSt7__debug6vectorIiS6_EESt26bidirectional_iterator_tagEppEv, symObjAddr: 0x126C, symBinAddr: 0x100001A54, symSize: 0x20 }
  - { offset: 0x1B829, size: 0x8, addend: 0x0, symName: __ZNK11__gnu_debug14_Safe_iteratorIN9__gnu_cxx17__normal_iteratorIPiNSt9__cxx19986vectorIiSaIiEEEEENSt7__debug6vectorIiS6_EESt20forward_iterator_tagE4baseEv, symObjAddr: 0x1258, symBinAddr: 0x100001A40, symSize: 0x14 }
  - { offset: 0x1B853, size: 0x8, addend: 0x0, symName: __ZN11__gnu_debug16_Error_formatter11_M_iteratorINS_14_Safe_iteratorIN9__gnu_cxx17__normal_iteratorIPiNSt9__cxx19986vectorIiSaIiEEEEENSt7__debug6vectorIiS8_EESt26random_access_iterator_tagEEEERS0_RKT_PKc, symObjAddr: 0x11BC, symBinAddr: 0x1000019A4, symSize: 0x9C }
  - { offset: 0x1B8AB, size: 0x8, addend: 0x0, symName: __ZNK11__gnu_debug14_Safe_iteratorIN9__gnu_cxx17__normal_iteratorIPiNSt9__cxx19986vectorIiSaIiEEEEENSt7__debug6vectorIiS6_EESt20forward_iterator_tagE20_M_value_initializedEv, symObjAddr: 0x1140, symBinAddr: 0x100001928, symSize: 0x7C }
  - { offset: 0x1B968, size: 0x8, addend: 0x0, symName: __ZNSt9__cxx19986vectorIiSaIiEE3endEv, symObjAddr: 0x1110, symBinAddr: 0x1000018F8, symSize: 0x30 }
  - { offset: 0x1B9F2, size: 0x8, addend: 0x0, symName: __ZN11__gnu_debug14_Safe_iteratorIN9__gnu_cxx17__normal_iteratorIPiNSt9__cxx19986vectorIiSaIiEEEEENSt7__debug6vectorIiS6_EESt26random_access_iterator_tagEC1ES8_PKNS_19_Safe_sequence_baseE, symObjAddr: 0x10E0, symBinAddr: 0x1000018C8, symSize: 0x30 }
  - { offset: 0x1BA2A, size: 0x8, addend: 0x0, symName: __ZNSt9__cxx19986vectorIiSaIiEE5beginEv, symObjAddr: 0x10B4, symBinAddr: 0x10000189C, symSize: 0x2C }
  - { offset: 0x1BAB9, size: 0x8, addend: 0x0, symName: __ZNSt9__cxx199812_Vector_baseIiSaIiEE19_M_get_Tp_allocatorEv, symObjAddr: 0x10A0, symBinAddr: 0x100001888, symSize: 0x14 }
  - { offset: 0x1BAFD, size: 0x8, addend: 0x0, symName: __ZNSt9__cxx199812_Vector_baseIiSaIiEED2Ev, symObjAddr: 0x1050, symBinAddr: 0x100001838, symSize: 0x50 }
  - { offset: 0x1BB40, size: 0x8, addend: 0x0, symName: __ZNSt9__cxx199812_Vector_baseIiSaIiEE12_Vector_implD1Ev, symObjAddr: 0x1024, symBinAddr: 0x10000180C, symSize: 0x2C }
  - { offset: 0x1BBB0, size: 0x8, addend: 0x0, symName: __ZN11__gnu_debug12_Safe_vectorINSt7__debug6vectorIiSaIiEEENSt9__cxx19986vectorIiS3_EEEC2Em, symObjAddr: 0x1000, symBinAddr: 0x1000017E8, symSize: 0x24 }
  - { offset: 0x1BC15, size: 0x8, addend: 0x0, symName: __ZNSt9__cxx19986vectorIiSaIiEEC2EmRKS1_, symObjAddr: 0xF98, symBinAddr: 0x100001780, symSize: 0x68 }
  - { offset: 0x1BC67, size: 0x8, addend: 0x0, symName: __ZNSt15__new_allocatorIiED2Ev, symObjAddr: 0xF84, symBinAddr: 0x10000176C, symSize: 0x14 }
  - { offset: 0x1BCA3, size: 0x8, addend: 0x0, symName: __ZNSt7__debug6vectorIiSaIiEEixEm, symObjAddr: 0xEA0, symBinAddr: 0x100001688, symSize: 0xE4 }
  - { offset: 0x1BCF9, size: 0x8, addend: 0x0, symName: __ZNK11__gnu_debug14_Safe_iteratorIN9__gnu_cxx17__normal_iteratorIPiNSt9__cxx19986vectorIiSaIiEEEEENSt7__debug6vectorIiS6_EESt20forward_iterator_tagEdeEv, symObjAddr: 0xDF8, symBinAddr: 0x1000015E0, symSize: 0xA8 }
  - { offset: 0x1BD7E, size: 0x8, addend: 0x0, symName: __ZN11__gnu_debug14_Safe_iteratorIN9__gnu_cxx17__normal_iteratorIPiNSt9__cxx19986vectorIiSaIiEEEEENSt7__debug6vectorIiS6_EESt26random_access_iterator_tagEppEv, symObjAddr: 0xDD8, symBinAddr: 0x1000015C0, symSize: 0x20 }
  - { offset: 0x1BDAA, size: 0x8, addend: 0x0, symName: __ZN11__gnu_debugneERKNS_14_Safe_iteratorIN9__gnu_cxx17__normal_iteratorIPiNSt9__cxx19986vectorIiSaIiEEEEENSt7__debug6vectorIiS6_EESt26random_access_iterator_tagEESF_, symObjAddr: 0xBC0, symBinAddr: 0x1000013A8, symSize: 0x218 }
  - { offset: 0x1BE95, size: 0x8, addend: 0x0, symName: __ZNSt7__debug6vectorIiSaIiEE3endEv, symObjAddr: 0xB7C, symBinAddr: 0x100001364, symSize: 0x44 }
  - { offset: 0x1BEBF, size: 0x8, addend: 0x0, symName: __ZNSt7__debug6vectorIiSaIiEE5beginEv, symObjAddr: 0xB38, symBinAddr: 0x100001320, symSize: 0x44 }
  - { offset: 0x1BF03, size: 0x8, addend: 0x0, symName: __ZNSt9__cxx19986vectorIiSaIiEED2Ev, symObjAddr: 0xADC, symBinAddr: 0x1000012C4, symSize: 0x5C }
  - { offset: 0x1BF93, size: 0x8, addend: 0x0, symName: __ZNSt7__debug6vectorIiSaIiEEC1EmRKS1_, symObjAddr: 0xA74, symBinAddr: 0x10000125C, symSize: 0x68 }
  - { offset: 0x1BFE5, size: 0x8, addend: 0x0, symName: __ZN11__gnu_debug15_Safe_containerINSt7__debug6vectorIiSaIiEEES3_NS_14_Safe_sequenceELb1EEC2Ev, symObjAddr: 0xA54, symBinAddr: 0x10000123C, symSize: 0x20 }
  - { offset: 0x1C033, size: 0x8, addend: 0x0, symName: __ZN11__gnu_debug14_Safe_sequenceINSt7__debug6vectorIiSaIiEEEEC2Ev, symObjAddr: 0xA34, symBinAddr: 0x10000121C, symSize: 0x20 }
  - { offset: 0x1C088, size: 0x8, addend: 0x0, symName: _main, symObjAddr: 0x9BC, symBinAddr: 0x1000011A4, symSize: 0x78 }
  - { offset: 0x1C0B8, size: 0x8, addend: 0x0, symName: __Z5solvev, symObjAddr: 0x7EC, symBinAddr: 0x100000FD4, symSize: 0x1D0 }
  - { offset: 0x1C21A, size: 0x8, addend: 0x0, symName: __ZN11__gnu_debug14_Safe_iteratorIN9__gnu_cxx17__normal_iteratorIPiNSt9__cxx19986vectorIiSaIiEEEEENSt7__debug6vectorIiS6_EESt26random_access_iterator_tagED1Ev, symObjAddr: 0x7CC, symBinAddr: 0x100000FB4, symSize: 0x20 }
  - { offset: 0x1C25E, size: 0x8, addend: 0x0, symName: __ZN11__gnu_debug14_Safe_iteratorIN9__gnu_cxx17__normal_iteratorIPiNSt9__cxx19986vectorIiSaIiEEEEENSt7__debug6vectorIiS6_EESt26bidirectional_iterator_tagED2Ev, symObjAddr: 0x7AC, symBinAddr: 0x100000F94, symSize: 0x20 }
  - { offset: 0x1C2A1, size: 0x8, addend: 0x0, symName: __ZN11__gnu_debug14_Safe_iteratorIN9__gnu_cxx17__normal_iteratorIPiNSt9__cxx19986vectorIiSaIiEEEEENSt7__debug6vectorIiS6_EESt20forward_iterator_tagED2Ev, symObjAddr: 0x788, symBinAddr: 0x100000F70, symSize: 0x24 }
  - { offset: 0x1C2E1, size: 0x8, addend: 0x0, symName: __ZNSt7__debug6vectorIiSaIiEED1Ev, symObjAddr: 0x75C, symBinAddr: 0x100000F44, symSize: 0x2C }
  - { offset: 0x1C324, size: 0x8, addend: 0x0, symName: __ZN11__gnu_debug15_Safe_containerINSt7__debug6vectorIiSaIiEEES3_NS_14_Safe_sequenceELb1EED2Ev, symObjAddr: 0x73C, symBinAddr: 0x100000F24, symSize: 0x20 }
  - { offset: 0x1C367, size: 0x8, addend: 0x0, symName: __ZN11__gnu_debug14_Safe_sequenceINSt7__debug6vectorIiSaIiEEEED2Ev, symObjAddr: 0x71C, symBinAddr: 0x100000F04, symSize: 0x20 }
  - { offset: 0x1C389, size: 0x8, addend: 0x0, symName: __ZSt3minImERKT_S2_S2_, symObjAddr: 0x6E4, symBinAddr: 0x100000ECC, symSize: 0x38 }
  - { offset: 0x1C3E9, size: 0x8, addend: 0x0, symName: __ZN11__gnu_debug19_Safe_sequence_baseD2Ev, symObjAddr: 0x6AC, symBinAddr: 0x100000E94, symSize: 0x38 }
  - { offset: 0x1C442, size: 0x8, addend: 0x0, symName: __ZN11__gnu_debug19_Safe_sequence_baseC2Ev, symObjAddr: 0x67C, symBinAddr: 0x100000E64, symSize: 0x30 }
  - { offset: 0x1C482, size: 0x8, addend: 0x0, symName: __ZN11__gnu_debug19_Safe_iterator_baseD2Ev, symObjAddr: 0x644, symBinAddr: 0x100000E2C, symSize: 0x38 }
  - { offset: 0x1C4F5, size: 0x8, addend: 0x0, symName: __ZN11__gnu_debug19_Safe_iterator_baseC2EPKNS_19_Safe_sequence_baseEb, symObjAddr: 0x5D4, symBinAddr: 0x100000DBC, symSize: 0x70 }
  - { offset: 0x1C560, size: 0x8, addend: 0x0, symName: __ZN9__gnu_cxx13__scoped_lockD1Ev, symObjAddr: 0x5B0, symBinAddr: 0x100000D98, symSize: 0x24 }
  - { offset: 0x1C5AD, size: 0x8, addend: 0x0, symName: __ZN9__gnu_cxx13__scoped_lockC1ERNS_7__mutexE, symObjAddr: 0x57C, symBinAddr: 0x100000D64, symSize: 0x34 }
  - { offset: 0x1C5DC, size: 0x8, addend: 0x0, symName: __ZN9__gnu_cxx7__mutex6unlockEv, symObjAddr: 0x4F8, symBinAddr: 0x100000CE0, symSize: 0x84 }
  - { offset: 0x1C65C, size: 0x8, addend: 0x0, symName: __ZN9__gnu_cxx7__mutex4lockEv, symObjAddr: 0x474, symBinAddr: 0x100000C5C, symSize: 0x84 }
  - { offset: 0x1C6D8, size: 0x8, addend: 0x0, symName: __ZN9__gnu_cxx32__throw_concurrence_unlock_errorEv, symObjAddr: 0x438, symBinAddr: 0x100000C20, symSize: 0x3C }
  - { offset: 0x1C711, size: 0x8, addend: 0x0, symName: __ZN9__gnu_cxx26__concurrence_unlock_errorD0Ev, symObjAddr: 0x410, symBinAddr: 0x100000BF8, symSize: 0x28 }
  - { offset: 0x1C73B, size: 0x8, addend: 0x0, symName: __ZN9__gnu_cxx26__concurrence_unlock_errorD1Ev, symObjAddr: 0x3DC, symBinAddr: 0x100000BC4, symSize: 0x34 }
  - { offset: 0x1C77E, size: 0x8, addend: 0x0, symName: __ZN9__gnu_cxx26__concurrence_unlock_errorC1Ev, symObjAddr: 0x3A8, symBinAddr: 0x100000B90, symSize: 0x34 }
  - { offset: 0x1C7A0, size: 0x8, addend: 0x0, symName: __ZN9__gnu_cxx30__throw_concurrence_lock_errorEv, symObjAddr: 0x36C, symBinAddr: 0x100000B54, symSize: 0x3C }
  - { offset: 0x1C7D9, size: 0x8, addend: 0x0, symName: __ZN9__gnu_cxx24__concurrence_lock_errorD0Ev, symObjAddr: 0x344, symBinAddr: 0x100000B2C, symSize: 0x28 }
  - { offset: 0x1C803, size: 0x8, addend: 0x0, symName: __ZN9__gnu_cxx24__concurrence_lock_errorD1Ev, symObjAddr: 0x310, symBinAddr: 0x100000AF8, symSize: 0x34 }
  - { offset: 0x1C846, size: 0x8, addend: 0x0, symName: __ZN9__gnu_cxx24__concurrence_lock_errorC1Ev, symObjAddr: 0x2DC, symBinAddr: 0x100000AC4, symSize: 0x34 }
  - { offset: 0x1C86C, size: 0x8, addend: 0x0, symName: __ZNK9__gnu_cxx26__concurrence_unlock_error4whatEv, symObjAddr: 0x2C4, symBinAddr: 0x100000AAC, symSize: 0x18 }
  - { offset: 0x1C896, size: 0x8, addend: 0x0, symName: __ZNK9__gnu_cxx24__concurrence_lock_error4whatEv, symObjAddr: 0x2AC, symBinAddr: 0x100000A94, symSize: 0x18 }
  - { offset: 0x1C91A, size: 0x8, addend: 0x0, symName: __ZdlPvS_, symObjAddr: 0x294, symBinAddr: 0x100000A7C, symSize: 0x18 }
  - { offset: 0x1C950, size: 0x8, addend: 0x0, symName: __ZnwmPv, symObjAddr: 0x27C, symBinAddr: 0x100000A64, symSize: 0x18 }
  - { offset: 0x1C982, size: 0x8, addend: 0x0, symName: __ZSt17__size_to_integerm, symObjAddr: 0x268, symBinAddr: 0x100000A50, symSize: 0x14 }
  - { offset: 0x1C9AC, size: 0x8, addend: 0x0, symName: __ZN11__gnu_debug16_Error_formatter5_S_atEPKcjS2_, symObjAddr: 0x1D4, symBinAddr: 0x1000009BC, symSize: 0x94 }
  - { offset: 0x1CA05, size: 0x8, addend: 0x0, symName: __ZZN11__gnu_debug16_Error_formatter5_S_atEPKcjS2_E11__formatter, symObjAddr: 0x2468, symBinAddr: 0x10000C000, symSize: 0x0 }
  - { offset: 0x1CA5C, size: 0x8, addend: 0x0, symName: __ZN11__gnu_debug16_Error_formatterC1EPKcjS2_, symObjAddr: 0x148, symBinAddr: 0x100000930, symSize: 0x8C }
  - { offset: 0x1CA9D, size: 0x8, addend: 0x0, symName: __ZN11__gnu_debug16_Error_formatter10_M_integerElPKc, symObjAddr: 0xAC, symBinAddr: 0x100000894, symSize: 0x9C }
  - { offset: 0x1CB22, size: 0x8, addend: 0x0, symName: __ZN11__gnu_debug16_Error_formatter10_ParameterC1ElPKc, symObjAddr: 0x58, symBinAddr: 0x100000840, symSize: 0x54 }
  - { offset: 0x1CB74, size: 0x8, addend: 0x0, symName: __ZN11__gnu_debug16_Error_formatter10_ParameterC1Ev, symObjAddr: 0x28, symBinAddr: 0x100000810, symSize: 0x30 }
  - { offset: 0x1CBB4, size: 0x8, addend: 0x0, symName: __ZNSt9exceptionC2Ev, symObjAddr: 0x0, symBinAddr: 0x1000007E8, symSize: 0x28 }
...
