---
triple:          'arm64-apple-darwin'
binary-path:     '/Users/abdullahalnafi/Desktop/Study/practise/Codeforces/1928_A/.bin/test'
relocations:
  - { offset: 0x196BB, size: 0x8, addend: 0x0, symName: __ZStL8__ioinit, symObjAddr: 0x74A90, symBinAddr: 0x100008228, symSize: 0x0 }
  - { offset: 0x19ADF, size: 0x8, addend: 0x0, symName: __GLOBAL__sub_I_test.cpp, symObjAddr: 0x1810, symBinAddr: 0x100001894, symSize: 0x14 }
  - { offset: 0x19AF7, size: 0x8, addend: 0x0, symName: __Z41__static_initialization_and_destruction_0v, symObjAddr: 0x17D4, symBinAddr: 0x100001858, symSize: 0x3C }
  - { offset: 0x19B7D, size: 0x8, addend: 0x0, symName: __ZNSt15__new_allocatorIiE8allocateEmPKv, symObjAddr: 0xFF4, symBinAddr: 0x1000017DC, symSize: 0x7C }
  - { offset: 0x19C42, size: 0x8, addend: 0x0, symName: __ZNSt15__new_allocatorIiE10deallocateEPim, symObjAddr: 0xFC4, symBinAddr: 0x1000017AC, symSize: 0x30 }
  - { offset: 0x19C88, size: 0x8, addend: 0x0, symName: __ZSt18uninitialized_copyIPKiPiET0_T_S4_S3_, symObjAddr: 0xF48, symBinAddr: 0x100001730, symSize: 0x7C }
  - { offset: 0x19D86, size: 0x8, addend: 0x0, symName: __ZNSt9__cxx19986vectorIiSaIiEE11_S_max_sizeERKS1_, symObjAddr: 0xEF4, symBinAddr: 0x1000016DC, symSize: 0x54 }
  - { offset: 0x19E5B, size: 0x8, addend: 0x0, symName: __ZNSt9__cxx199812_Vector_baseIiSaIiEE17_Vector_impl_dataC2Ev, symObjAddr: 0xEC8, symBinAddr: 0x1000016B0, symSize: 0x2C }
  - { offset: 0x19EE8, size: 0x8, addend: 0x0, symName: __ZN11__gnu_debug16_Error_formatter10_ParameterC1INSt9__cxx19986vectorIiSaIiEEEEERKT_PKcNS0_12_Is_sequenceE, symObjAddr: 0xE58, symBinAddr: 0x100001640, symSize: 0x70 }
  - { offset: 0x19FA6, size: 0x8, addend: 0x0, symName: __ZNK11__gnu_debug12_Safe_vectorINSt7__debug6vectorIiSaIiEEENSt9__cxx19986vectorIiS3_EEE6_M_seqEv, symObjAddr: 0xE40, symBinAddr: 0x100001628, symSize: 0x18 }
  - { offset: 0x19FCC, size: 0x8, addend: 0x0, symName: __ZSt22__uninitialized_copy_aIPKiS1_PiiET1_T_T0_S3_RSaIT2_E, symObjAddr: 0xE10, symBinAddr: 0x1000015F8, symSize: 0x30 }
  - { offset: 0x1A073, size: 0x8, addend: 0x0, symName: __ZNSt9__cxx199812_Vector_baseIiSaIiEE11_M_allocateEm, symObjAddr: 0xDC0, symBinAddr: 0x1000015A8, symSize: 0x50 }
  - { offset: 0x1A0D7, size: 0x8, addend: 0x0, symName: __ZNSt9__cxx19986vectorIiSaIiEE17_S_check_init_lenEmRKS1_, symObjAddr: 0xD3C, symBinAddr: 0x100001524, symSize: 0x84 }
  - { offset: 0x1A1B4, size: 0x8, addend: 0x0, symName: __ZNSt9__cxx199812_Vector_baseIiSaIiEE12_Vector_implC1ERKS1_, symObjAddr: 0xCF0, symBinAddr: 0x1000014D8, symSize: 0x4C }
  - { offset: 0x1A23B, size: 0x8, addend: 0x0, symName: __ZN11__gnu_debug16_Error_formatter11_M_sequenceINSt9__cxx19986vectorIiSaIiEEEEERS0_RKT_PKc, symObjAddr: 0xC54, symBinAddr: 0x10000143C, symSize: 0x9C }
  - { offset: 0x1A2D7, size: 0x8, addend: 0x0, symName: __ZN11__gnu_debug16_Error_formatter10_ParameterC1INSt7__debug6vectorIiSaIiEEEEERKT_PKcNS0_12_Is_sequenceE, symObjAddr: 0xBE4, symBinAddr: 0x1000013CC, symSize: 0x70 }
  - { offset: 0x1A341, size: 0x8, addend: 0x0, symName: __ZSt8_DestroyIPiEvT_S1_, symObjAddr: 0xBCC, symBinAddr: 0x1000013B4, symSize: 0x18 }
  - { offset: 0x1A387, size: 0x8, addend: 0x0, symName: __ZNSt9__cxx199812_Vector_baseIiSaIiEE13_M_deallocateEPim, symObjAddr: 0xB74, symBinAddr: 0x10000135C, symSize: 0x58 }
  - { offset: 0x1A409, size: 0x8, addend: 0x0, symName: __ZN11__gnu_debug12_Safe_vectorINSt7__debug6vectorIiSaIiEEENSt9__cxx19986vectorIiS3_EEE29_M_update_guaranteed_capacityEv, symObjAddr: 0xB0C, symBinAddr: 0x1000012F4, symSize: 0x68 }
  - { offset: 0x1A433, size: 0x8, addend: 0x0, symName: __ZNSt9__cxx19986vectorIiSaIiEE21_M_range_initialize_nIPKiS5_EEvT_T0_m, symObjAddr: 0xA54, symBinAddr: 0x10000123C, symSize: 0xB8 }
  - { offset: 0x1A4D4, size: 0x8, addend: 0x0, symName: __ZNKSt16initializer_listIiE4sizeEv, symObjAddr: 0xA3C, symBinAddr: 0x100001224, symSize: 0x18 }
  - { offset: 0x1A4FE, size: 0x8, addend: 0x0, symName: __ZNKSt16initializer_listIiE3endEv, symObjAddr: 0xA04, symBinAddr: 0x1000011EC, symSize: 0x38 }
  - { offset: 0x1A528, size: 0x8, addend: 0x0, symName: __ZNKSt16initializer_listIiE5beginEv, symObjAddr: 0x9EC, symBinAddr: 0x1000011D4, symSize: 0x18 }
  - { offset: 0x1A57A, size: 0x8, addend: 0x0, symName: __ZNSt9__cxx199812_Vector_baseIiSaIiEEC2ERKS1_, symObjAddr: 0x9C4, symBinAddr: 0x1000011AC, symSize: 0x28 }
  - { offset: 0x1A5A9, size: 0x8, addend: 0x0, symName: __ZNSt9__cxx19986vectorIiSaIiEEixEm, symObjAddr: 0x8E4, symBinAddr: 0x1000010CC, symSize: 0xE0 }
  - { offset: 0x1A5FF, size: 0x8, addend: 0x0, symName: __ZN11__gnu_debug16_Error_formatter11_M_sequenceINSt7__debug6vectorIiSaIiEEEEERS0_RKT_PKc, symObjAddr: 0x848, symBinAddr: 0x100001030, symSize: 0x9C }
  - { offset: 0x1A657, size: 0x8, addend: 0x0, symName: __ZNKSt9__cxx19986vectorIiSaIiEE4sizeEv, symObjAddr: 0x808, symBinAddr: 0x100000FF0, symSize: 0x40 }
  - { offset: 0x1A6CD, size: 0x8, addend: 0x0, symName: __ZNSt9__cxx199812_Vector_baseIiSaIiEE19_M_get_Tp_allocatorEv, symObjAddr: 0x7F4, symBinAddr: 0x100000FDC, symSize: 0x14 }
  - { offset: 0x1A711, size: 0x8, addend: 0x0, symName: __ZNSt9__cxx199812_Vector_baseIiSaIiEED2Ev, symObjAddr: 0x7A4, symBinAddr: 0x100000F8C, symSize: 0x50 }
  - { offset: 0x1A754, size: 0x8, addend: 0x0, symName: __ZNSt9__cxx199812_Vector_baseIiSaIiEE12_Vector_implD1Ev, symObjAddr: 0x778, symBinAddr: 0x100000F60, symSize: 0x2C }
  - { offset: 0x1A7B7, size: 0x8, addend: 0x0, symName: __ZN11__gnu_debug12_Safe_vectorINSt7__debug6vectorIiSaIiEEENSt9__cxx19986vectorIiS3_EEEC2Ev, symObjAddr: 0x750, symBinAddr: 0x100000F38, symSize: 0x28 }
  - { offset: 0x1A813, size: 0x8, addend: 0x0, symName: __ZNSt9__cxx19986vectorIiSaIiEEC2ESt16initializer_listIiERKS1_, symObjAddr: 0x6D4, symBinAddr: 0x100000EBC, symSize: 0x7C }
  - { offset: 0x1A865, size: 0x8, addend: 0x0, symName: __ZNSt15__new_allocatorIiED2Ev, symObjAddr: 0x6C0, symBinAddr: 0x100000EA8, symSize: 0x14 }
  - { offset: 0x1A8A1, size: 0x8, addend: 0x0, symName: __ZNSt7__debug6vectorIiSaIiEEixEm, symObjAddr: 0x5DC, symBinAddr: 0x100000DC4, symSize: 0xE4 }
  - { offset: 0x1A911, size: 0x8, addend: 0x0, symName: __ZNSt9__cxx19986vectorIiSaIiEED2Ev, symObjAddr: 0x580, symBinAddr: 0x100000D68, symSize: 0x5C }
  - { offset: 0x1A9A1, size: 0x8, addend: 0x0, symName: __ZNSt7__debug6vectorIiSaIiEEC1ESt16initializer_listIiERKS1_, symObjAddr: 0x51C, symBinAddr: 0x100000D04, symSize: 0x64 }
  - { offset: 0x1A9F3, size: 0x8, addend: 0x0, symName: __ZN11__gnu_debug15_Safe_containerINSt7__debug6vectorIiSaIiEEES3_NS_14_Safe_sequenceELb1EEC2Ev, symObjAddr: 0x4FC, symBinAddr: 0x100000CE4, symSize: 0x20 }
  - { offset: 0x1AA41, size: 0x8, addend: 0x0, symName: __ZN11__gnu_debug14_Safe_sequenceINSt7__debug6vectorIiSaIiEEEEC2Ev, symObjAddr: 0x4DC, symBinAddr: 0x100000CC4, symSize: 0x20 }
  - { offset: 0x1AA96, size: 0x8, addend: 0x0, symName: _main, symObjAddr: 0x34C, symBinAddr: 0x100000B34, symSize: 0x190 }
  - { offset: 0x1ABC4, size: 0x8, addend: 0x0, symName: __ZNSt7__debug6vectorIiSaIiEED1Ev, symObjAddr: 0x320, symBinAddr: 0x100000B08, symSize: 0x2C }
  - { offset: 0x1AC07, size: 0x8, addend: 0x0, symName: __ZN11__gnu_debug15_Safe_containerINSt7__debug6vectorIiSaIiEEES3_NS_14_Safe_sequenceELb1EED2Ev, symObjAddr: 0x300, symBinAddr: 0x100000AE8, symSize: 0x20 }
  - { offset: 0x1AC4A, size: 0x8, addend: 0x0, symName: __ZN11__gnu_debug14_Safe_sequenceINSt7__debug6vectorIiSaIiEEEED2Ev, symObjAddr: 0x2E0, symBinAddr: 0x100000AC8, symSize: 0x20 }
  - { offset: 0x1AC6C, size: 0x8, addend: 0x0, symName: __ZSt3minImERKT_S2_S2_, symObjAddr: 0x2A8, symBinAddr: 0x100000A90, symSize: 0x38 }
  - { offset: 0x1ACCC, size: 0x8, addend: 0x0, symName: __ZN11__gnu_debug19_Safe_sequence_baseD2Ev, symObjAddr: 0x270, symBinAddr: 0x100000A58, symSize: 0x38 }
  - { offset: 0x1AD25, size: 0x8, addend: 0x0, symName: __ZN11__gnu_debug19_Safe_sequence_baseC2Ev, symObjAddr: 0x240, symBinAddr: 0x100000A28, symSize: 0x30 }
  - { offset: 0x1AD47, size: 0x8, addend: 0x0, symName: __ZN11__gnu_debug16_Error_formatter5_S_atEPKcjS2_, symObjAddr: 0x1AC, symBinAddr: 0x100000994, symSize: 0x94 }
  - { offset: 0x1ADA0, size: 0x8, addend: 0x0, symName: __ZZN11__gnu_debug16_Error_formatter5_S_atEPKcjS2_E11__formatter, symObjAddr: 0x1070, symBinAddr: 0x100008000, symSize: 0x0 }
  - { offset: 0x1ADF7, size: 0x8, addend: 0x0, symName: __ZN11__gnu_debug16_Error_formatterC1EPKcjS2_, symObjAddr: 0x120, symBinAddr: 0x100000908, symSize: 0x8C }
  - { offset: 0x1AE38, size: 0x8, addend: 0x0, symName: __ZN11__gnu_debug16_Error_formatter10_M_integerElPKc, symObjAddr: 0x84, symBinAddr: 0x10000086C, symSize: 0x9C }
  - { offset: 0x1AEBD, size: 0x8, addend: 0x0, symName: __ZN11__gnu_debug16_Error_formatter10_ParameterC1ElPKc, symObjAddr: 0x30, symBinAddr: 0x100000818, symSize: 0x54 }
  - { offset: 0x1AF0F, size: 0x8, addend: 0x0, symName: __ZN11__gnu_debug16_Error_formatter10_ParameterC1Ev, symObjAddr: 0x0, symBinAddr: 0x1000007E8, symSize: 0x30 }
...
